(dp1
VC:\u005cUsers\u005cashlc00\u005cDesktop\u005cHartstra\u005cHartstra_10073GrandeFord\u005ccode\u005cTera_7\u005cvt3_code\u005cvt3_POU__ARR_BYTE_version.h
p2
S'd47de601d5de58432479f1de0cde1c82'
p3
sVC:\u005cUsers\u005cashlc00\u005cDesktop\u005cHartstra\u005cHartstra_10073GrandeFord\u005ccode\u005cTera_7\u005cvt3_code\u005cvt3_fonts.c
p4
S'59e544d226ae179dd444bd1c6c851d7e'
p5
sVC:\u005cUsers\u005cashlc00\u005cDesktop\u005cHartstra\u005cHartstra_10073GrandeFord\u005ccode\u005cTera_7\u005cvt3_code\u005cvt3_palette.h
p6
S'7c7e08576438bd557f3c8a16226dc059'
p7
sVC:\u005cUsers\u005cashlc00\u005cDesktop\u005cHartstra\u005cHartstra_10073GrandeFord\u005ccode\u005cTera_7\u005cvt3_code\u005cvt3_Disp__Camera.h
p8
S'ad15effbf7f1d9ecc9e1c03f746f3d0c'
p9
sVC:\u005cUsers\u005cashlc00\u005cDesktop\u005cHartstra\u005cHartstra_10073GrandeFord\u005ccode\u005cTera_7\u005cvt3_code\u005cvt3_init_persistent_f_array.h
p10
S'4961bac531fd7b438c30560dbf5950df'
p11
sVC:\u005cUsers\u005cashlc00\u005cDesktop\u005cHartstra\u005cHartstra_10073GrandeFord\u005ccode\u005cTera_7\u005cvt3_code\u005cvt3_Disp__Camera.c
p12
S'e52884f3c508d98678d038faa469e538'
p13
sVC:\u005cUsers\u005cashlc00\u005cDesktop\u005cHartstra\u005cHartstra_10073GrandeFord\u005ccode\u005cTera_7\u005cvt3_code\u005cvt3_palette.c
p14
S'e23c9e47ad38f1cdb9528ab6f35fd755'
p15
sVC:\u005cUsers\u005cashlc00\u005cDesktop\u005cHartstra\u005cHartstra_10073GrandeFord\u005ccode\u005cTera_7\u005cvt3_code\u005cvt3_fonts.h
p16
S'2d4cc764408dc265a605b94c365b1284'
p17
sVC:\u005cUsers\u005cashlc00\u005cDesktop\u005cHartstra\u005cHartstra_10073GrandeFord\u005ccode\u005cTera_7\u005cvt3_code\u005cvt3_POU__GET_POWER_FAIL.h
p18
S'5d4714165fc4987308149061006f41b0'
p19
sVC:\u005cUsers\u005cashlc00\u005cDesktop\u005cHartstra\u005cHartstra_10073GrandeFord\u005ccode\u005cTera_7\u005cvt3_code\u005cvt3_init_persistent_f_array.c
p20
S'd2643a61ff12c08922325f5a25135faa'
p21
sVC:\u005cUsers\u005cashlc00\u005cDesktop\u005cHartstra\u005cHartstra_10073GrandeFord\u005ccode\u005cTera_7\u005cvt3_code\u005cvt3_alarms.h
p22
S'fe6ff769366d0d1ff417804620480363'
p23
sVC:\u005cUsers\u005cashlc00\u005cDesktop\u005cHartstra\u005cHartstra_10073GrandeFord\u005ccode\u005cTera_7\u005cvt3_code\u005cvt3_alarms.c
p24
S'924fb0eff633b8ff56d9a54f1a7f8ed4'
p25
sVC:\u005cUsers\u005cashlc00\u005cDesktop\u005cHartstra\u005cHartstra_10073GrandeFord\u005ccode\u005cTera_7\u005cvt3_code\u005cvt3_POU__slaveConfig.c
p26
S'250282194da6b1fd2d12a0260069806d'
p27
sVC:\u005cUsers\u005cashlc00\u005cDesktop\u005cHartstra\u005cHartstra_10073GrandeFord\u005ccode\u005cTera_7\u005cvt3_code\u005cvt3_POU__outputs.c
p28
S'ede74136f3074315f05c5b8791f38c43'
p29
sVC:\u005cUsers\u005cashlc00\u005cDesktop\u005cHartstra\u005cHartstra_10073GrandeFord\u005ccode\u005cTera_7\u005cvt3_code\u005cvt3_POU__outputs.h
p30
S'417e291da49adbc702c64a1091396c6b'
p31
sVC:\u005cUsers\u005cashlc00\u005cDesktop\u005cHartstra\u005cHartstra_10073GrandeFord\u005ccode\u005cTera_7\u005cvt3_code\u005cvt3_POU__slaveConfig.h
p32
S'bf079b10366ee781141b3c95541c11ca'
p33
sVC:\u005cUsers\u005cashlc00\u005cDesktop\u005cHartstra\u005cHartstra_10073GrandeFord\u005ccode\u005cTera_7\u005cvt3_code\u005cvt3_POU__setup_data.h
p34
S'f5c57c650f37a51c317c0b7aae640654'
p35
sVC:\u005cUsers\u005cashlc00\u005cDesktop\u005cHartstra\u005cHartstra_10073GrandeFord\u005ccode\u005cTera_7\u005cvt3_code\u005cvt3_POU__setup_data.c
p36
S'5ec975ebafb6a0aae91ab3812cd81c7d'
p37
sVC:\u005cUsers\u005cashlc00\u005cDesktop\u005cHartstra\u005cHartstra_10073GrandeFord\u005ccode\u005cTera_7\u005cvt3_code\u005cvt3_init_persistent_p_array.c
p38
S'5856020ff37d4e80adbf66a773c9c9fc'
p39
sVC:\u005cUsers\u005cashlc00\u005cDesktop\u005cHartstra\u005cHartstra_10073GrandeFord\u005ccode\u005cTera_7\u005cvt3_code\u005cvt3_POU__ST_TRANSLATE.h
p40
S'ad2554746a321871bf7eb15c907c79d9'
p41
sVC:\u005cUsers\u005cashlc00\u005cDesktop\u005cHartstra\u005cHartstra_10073GrandeFord\u005ccode\u005cTera_7\u005cvt3_code\u005cvt3_init_persistent_p_array.h
p42
S'0af64c3cc4888d6473556f273bc1f64e'
p43
sVC:\u005cUsers\u005cashlc00\u005cDesktop\u005cHartstra\u005cHartstra_10073GrandeFord\u005ccode\u005cTera_7\u005cvt3_code\u005cvt3_BMP__GrnButtonStyle1_0_0.h
p44
S'26de596f5675c33fb5b5239574439e2d'
p45
sVC:\u005cUsers\u005cashlc00\u005cDesktop\u005cHartstra\u005cHartstra_10073GrandeFord\u005ccode\u005cTera_7\u005cvt3_code\u005cvt3_POU__iocore_data.c
p46
S'e22bd8868ad8f87fdab2c083a14e38e3'
p47
sVC:\u005cUsers\u005cashlc00\u005cDesktop\u005cHartstra\u005cHartstra_10073GrandeFord\u005ccode\u005cTera_7\u005cvt3_code\u005cvt3_POU__iocore_data.h
p48
S'1343d4a622945dc0ed20745d5f00732e'
p49
sVC:\u005cUsers\u005cashlc00\u005cDesktop\u005cHartstra\u005cHartstra_10073GrandeFord\u005ccode\u005cTera_7\u005cvt3_code\u005cvt3_POU_common.c
p50
S'3727f7447665e871ed731d1fcf3ae062'
p51
sVC:\u005cUsers\u005cashlc00\u005cDesktop\u005cHartstra\u005cHartstra_10073GrandeFord\u005ccode\u005cTera_7\u005cvt3_code\u005cvt3_POU__task100.c
p52
S'a25f6d143489cca51df4f86ca6b2dc77'
p53
sVC:\u005cUsers\u005cashlc00\u005cDesktop\u005cHartstra\u005cHartstra_10073GrandeFord\u005ccode\u005cTera_7\u005cvt3_code\u005cvt3_POU_common.h
p54
S'209d6507df0c407739686d04f8f9888d'
p55
sVC:\u005cUsers\u005cashlc00\u005cDesktop\u005cHartstra\u005cHartstra_10073GrandeFord\u005ccode\u005cTera_7\u005cvt3_code\u005cvt3_POU__task100.h
p56
S'3fe5ad71eaf99f37093e43adb00712c7'
p57
sVC:\u005cUsers\u005cashlc00\u005cDesktop\u005cHartstra\u005cHartstra_10073GrandeFord\u005ccode\u005cTera_7\u005cvt3_code\u005cvt3_BMP__HartstraLogo1_0_0.h
p58
S'7ed3418e40475b3060ef49c0390dea9a'
p59
sVC:\u005cUsers\u005cashlc00\u005cDesktop\u005cHartstra\u005cHartstra_10073GrandeFord\u005ccode\u005cTera_7\u005cvt3_code\u005cvt3_POU.c
p60
S'e45f19b1caf1fd87ed8b9c0a5e283751'
p61
sVC:\u005cUsers\u005cashlc00\u005cDesktop\u005cHartstra\u005cHartstra_10073GrandeFord\u005ccode\u005cTera_7\u005cvt3_code\u005cvt3_disp_common.h
p62
S'df9e81379d9f7f41b22f3fe1a6656d1b'
p63
sVC:\u005cUsers\u005cashlc00\u005cDesktop\u005cHartstra\u005cHartstra_10073GrandeFord\u005ccode\u005cTera_7\u005cvt3_code\u005cvt3_disp_common.c
p64
S'dc9c78970ec763e131fbe2060d5ce550'
p65
sVC:\u005cUsers\u005cashlc00\u005cDesktop\u005cHartstra\u005cHartstra_10073GrandeFord\u005ccode\u005cTera_7\u005cvt3_code\u005cvt3_CAN.c
p66
S'51204dc24c4364573301fe86f6f67bea'
p67
sVC:\u005cUsers\u005cashlc00\u005cDesktop\u005cHartstra\u005cHartstra_10073GrandeFord\u005ccode\u005cTera_7\u005cvt3_code\u005cvt3_POU_string_typedef.h
p68
S'878acfc1d6d7d5859feaefbb3f0f1548'
p69
sVC:\u005cUsers\u005cashlc00\u005cDesktop\u005cHartstra\u005cHartstra_10073GrandeFord\u005ccode\u005cTera_7\u005cvt3_code\u005cvt3_POU__slaveConfigFB_CPU0.c
p70
S'8e10f799a9bff5663a17d9491a8fe8b6'
p71
sVC:\u005cUsers\u005cashlc00\u005cDesktop\u005cHartstra\u005cHartstra_10073GrandeFord\u005ccode\u005cTera_7\u005cvt3_code\u005cvt3_slaves.c
p72
S'1d50fb0927b3a06b6df02ef6f2ed16ab'
p73
sVC:\u005cUsers\u005cashlc00\u005cDesktop\u005cHartstra\u005cHartstra_10073GrandeFord\u005ccode\u005cTera_7\u005cvt3_code\u005cvt3_BMP__BluButtonStyle1_0_0.h
p74
S'1ef78b26f668a658b2f7b009f54003dc'
p75
sVC:\u005cUsers\u005cashlc00\u005cDesktop\u005cHartstra\u005cHartstra_10073GrandeFord\u005ccode\u005cTera_7\u005cvt3_code\u005cvt3_POU__slaveConfigFB_CPU0.h
p76
S'7e0b23c90bfcfdcdd6f178f4dbfe6c66'
p77
sVC:\u005cUsers\u005cashlc00\u005cDesktop\u005cHartstra\u005cHartstra_10073GrandeFord\u005ccode\u005cTera_7\u005cvt3_code\u005cvt3_images.h
p78
S'da3920d825848d82e66ab231ae998a99'
p79
sVC:\u005cUsers\u005cashlc00\u005cDesktop\u005cHartstra\u005cHartstra_10073GrandeFord\u005ccode\u005cTera_7\u005cvt3_code\u005cvt3_POU__get_prj_version.h
p80
S'a49e34ca22601f3771b1a95024c0c979'
p81
sVC:\u005cUsers\u005cashlc00\u005cDesktop\u005cHartstra\u005cHartstra_10073GrandeFord\u005ccode\u005cTera_7\u005cvt3_code\u005cvt3_CAN__CanInterface.c
p82
S'7f16ef93261edba354ec41d5bdee863a'
p83
sVC:\u005cUsers\u005cashlc00\u005cDesktop\u005cHartstra\u005cHartstra_10073GrandeFord\u005ccode\u005cTera_7\u005cvt3_code\u005cvt3_Event__Setup.h
p84
S'3d9fa41bdbb7786cce09e052f7af855c'
p85
sVC:\u005cUsers\u005cashlc00\u005cDesktop\u005cHartstra\u005cHartstra_10073GrandeFord\u005ccode\u005cTera_7\u005cvt3_code\u005cvt3_CAN__CanInterface.h
p86
S'4ba8c93f1ea3ac6c6208bc8f501c7287'
p87
sVC:\u005cUsers\u005cashlc00\u005cDesktop\u005cHartstra\u005cHartstra_10073GrandeFord\u005ccode\u005cTera_7\u005cvt3_code\u005cvt3_Event__Setup.c
p88
S'2e8df5fcbf7bf46ae86d632f9d0b30eb'
p89
sVC:\u005cUsers\u005cashlc00\u005cDesktop\u005cHartstra\u005cHartstra_10073GrandeFord\u005ccode\u005cTera_7\u005cvt3_code\u005cvt3_POU__req_touchcalibration.h
p90
S'ca983682e3fdc0f466cefe0b40bae1df'
p91
sVC:\u005cUsers\u005cashlc00\u005cDesktop\u005cHartstra\u005cHartstra_10073GrandeFord\u005ccode\u005cTera_7\u005cvt3_code\u005cvt3_var_version.c
p92
S'80d3ba5005a11ae99f1b142f3971c19a'
p93
sVC:\u005cUsers\u005cashlc00\u005cDesktop\u005cHartstra\u005cHartstra_10073GrandeFord\u005ccode\u005cTera_7\u005cvt3_code\u005cvt3_POU__PLC_PRG.c
p94
S'817fb867ffd52e0f8d8d1176be57970a'
p95
sVC:\u005cUsers\u005cashlc00\u005cDesktop\u005cHartstra\u005cHartstra_10073GrandeFord\u005ccode\u005cTera_7\u005cvt3_code\u005cvt3_Event__Camera2.h
p96
S'1f4b65e6b3cc84b31de23f0668d5427f'
p97
sVC:\u005cUsers\u005cashlc00\u005cDesktop\u005cHartstra\u005cHartstra_10073GrandeFord\u005ccode\u005cTera_7\u005cvt3_code\u005cvt3_disp_events.c
p98
S'd8feb897d0c5d3e5c1c57a9238077d73'
p99
sVC:\u005cUsers\u005cashlc00\u005cDesktop\u005cHartstra\u005cHartstra_10073GrandeFord\u005ccode\u005cTera_7\u005cvt3_code\u005cvt3_trend_sampling.c
p100
S'4515ec49943d262cae4c828e39dd552d'
p101
sVC:\u005cUsers\u005cashlc00\u005cDesktop\u005cHartstra\u005cHartstra_10073GrandeFord\u005ccode\u005cTera_7\u005cvt3_code\u005cvt3_POU__PLC_PRG.h
p102
S'1f9f56124d974ed3d859577727aeeef3'
p103
sVC:\u005cUsers\u005cashlc00\u005cDesktop\u005cHartstra\u005cHartstra_10073GrandeFord\u005ccode\u005cTera_7\u005cvt3_code\u005cvt3_CAN_common.h
p104
S'5a7dcad396f420054a22da23ceedb260'
p105
sVC:\u005cUsers\u005cashlc00\u005cDesktop\u005cHartstra\u005cHartstra_10073GrandeFord\u005ccode\u005cTera_7\u005cvt3_code\u005cvt3_POU__INIT_BYTEARRAY_R.h
p106
S'5df33f87a18e04cca24cfbcb60efff6d'
p107
sVC:\u005cUsers\u005cashlc00\u005cDesktop\u005cHartstra\u005cHartstra_10073GrandeFord\u005ccode\u005cTera_7\u005cvt3_code\u005cvt3_POU__INIT_SD_USB.h
p108
S'8edab598163e13617dec6af2402f6946'
p109
sVC:\u005cUsers\u005cashlc00\u005cDesktop\u005cHartstra\u005cHartstra_10073GrandeFord\u005ccode\u005cTera_7\u005cvt3_code\u005cvt3_CAN_common.c
p110
S'dc02149e06a660e797b5902ccd767106'
p111
sVC:\u005cUsers\u005cashlc00\u005cDesktop\u005cHartstra\u005cHartstra_10073GrandeFord\u005ccode\u005cTera_7\u005cvt3_code\u005cvt3_POU__INIT_BYTEARRAY_P.h
p112
S'4c8fa5bc6763c725ee8381222d24a28c'
p113
sVC:\u005cUsers\u005cashlc00\u005cDesktop\u005cHartstra\u005cHartstra_10073GrandeFord\u005ccode\u005cTera_7\u005cvt3_code\u005cvt3_POU__check_touchcalibration.h
p114
S'69001f57502ab238b2778c495da66807'
p115
sVC:\u005cUsers\u005cashlc00\u005cDesktop\u005cHartstra\u005cHartstra_10073GrandeFord\u005ccode\u005cTera_7\u005cvt3_code\u005cvt3_POU__home_data.c
p116
S'95980268ade8ecbf7867ec73bc6b8739'
p117
sVC:\u005cUsers\u005cashlc00\u005cDesktop\u005cHartstra\u005cHartstra_10073GrandeFord\u005ccode\u005cTera_7\u005cvt3_code\u005cvt3_POU__interpol.h
p118
S'd692c1ce268a9e801aac9576ba8dcdff'
p119
sVC:\u005cUsers\u005cashlc00\u005cDesktop\u005cHartstra\u005cHartstra_10073GrandeFord\u005ccode\u005cTera_7\u005cvt3_code\u005cvt3_disp.c
p120
S'0dd14f8875dcbf526dd0d69df67ff76f'
p121
sVC:\u005cUsers\u005cashlc00\u005cDesktop\u005cHartstra\u005cHartstra_10073GrandeFord\u005ccode\u005cTera_7\u005cvt3_code\u005cvt3_BMP__RedButtonStyle1_0_0.h
p122
S'd5046e9cbc94173131f252fa41a33acf'
p123
sVC:\u005cUsers\u005cashlc00\u005cDesktop\u005cHartstra\u005cHartstra_10073GrandeFord\u005ccode\u005cTera_7\u005cvt3_code\u005cvt3_POU__global_data.c
p124
S'b5c00671f15d63f6dbb69735e918e056'
p125
sVC:\u005cUsers\u005cashlc00\u005cDesktop\u005cHartstra\u005cHartstra_10073GrandeFord\u005ccode\u005cTera_7\u005cvt3_code\u005cvt3_IO.h
p126
S'f0b713b9daa93742b2b221371a7e3ad2'
p127
sVC:\u005cUsers\u005cashlc00\u005cDesktop\u005cHartstra\u005cHartstra_10073GrandeFord\u005ccode\u005cTera_7\u005cvt3_code\u005cvt3_POU__get_prj_version_byte.h
p128
S'fb42ebcb2994deaa0c678f0385485fa1'
p129
sVC:\u005cUsers\u005cashlc00\u005cDesktop\u005cHartstra\u005cHartstra_10073GrandeFord\u005ccode\u005cTera_7\u005cvt3_code\u005cvt3_POU__SHUTDOWN.h
p130
S'0d13935e77aae17b2d8b24d5c226330f'
p131
sVC:\u005cUsers\u005cashlc00\u005cDesktop\u005cHartstra\u005cHartstra_10073GrandeFord\u005ccode\u005cTera_7\u005cvt3_code\u005cvt3_POU__global_data.h
p132
S'fb7dde5f96d993cb8a1fc78dba76af73'
p133
sVC:\u005cUsers\u005cashlc00\u005cDesktop\u005cHartstra\u005cHartstra_10073GrandeFord\u005ccode\u005cTera_7\u005cvt3_code\u005cvt3_POU__slaveConfigFB_CPU1.h
p134
S'bf7d587fcfb11e681d4bdd8e899303ca'
p135
sVC:\u005cUsers\u005cashlc00\u005cDesktop\u005cHartstra\u005cHartstra_10073GrandeFord\u005ccode\u005cTera_7\u005cvt3_code\u005cvt3_Disp__Camera2.h
p136
S'0d3b99371fccf80b618084c9c3dc197f'
p137
sVC:\u005cUsers\u005cashlc00\u005cDesktop\u005cHartstra\u005cHartstra_10073GrandeFord\u005ccode\u005cTera_7\u005cvt3_code\u005cvt3_Disp__ScreenFrame.c
p138
S'a601e389b97d3cb19940c9611cedf3e9'
p139
sVC:\u005cUsers\u005cashlc00\u005cDesktop\u005cHartstra\u005cHartstra_10073GrandeFord\u005ccode\u005cTera_7\u005cvt3_code\u005cvt3_POU__WRITE_EL_PRIVATE.h
p140
S'28304ebffb0556ce574c9a70b46bcdcd'
p141
sVC:\u005cUsers\u005cashlc00\u005cDesktop\u005cHartstra\u005cHartstra_10073GrandeFord\u005ccode\u005cTera_7\u005cvt3_code\u005cvt3_POU__assignIO.c
p142
S'c08abdf2fdc9823966247eacbf658d9d'
p143
sVC:\u005cUsers\u005cashlc00\u005cDesktop\u005cHartstra\u005cHartstra_10073GrandeFord\u005ccode\u005cTera_7\u005cvt3_code\u005cvt3_Disp__ScreenFrame.h
p144
S'0d7e10ab595c0247711669e994613b79'
p145
sVC:\u005cUsers\u005cashlc00\u005cDesktop\u005cHartstra\u005cHartstra_10073GrandeFord\u005ccode\u005cTera_7\u005cvt3_code\u005cvt3_Disp__Camera2.c
p146
S'246e8cc7faec9bc7d501c7ee7a4e565a'
p147
sVC:\u005cUsers\u005cashlc00\u005cDesktop\u005cHartstra\u005cHartstra_10073GrandeFord\u005ccode\u005cTera_7\u005cvt3_code\u005cvt3_POU__slaveConfigFB_CPU1.c
p148
S'5cf2db8f84b7b3219442fdba2b15f3c3'
p149
sVC:\u005cUsers\u005cashlc00\u005cDesktop\u005cHartstra\u005cHartstra_10073GrandeFord\u005ccode\u005cTera_7\u005cvt3_code\u005cvt3_POU__assignIO.h
p150
S'b674e5e7034098ea0140e96fd8ebd691'
p151
sVC:\u005cUsers\u005cashlc00\u005cDesktop\u005cHartstra\u005cHartstra_10073GrandeFord\u005ccode\u005cTera_7\u005cvt3_code\u005cvt3_POU.h
p152
S'a6579c7b36ae06babe016f801ddd377a'
p153
sVC:\u005cUsers\u005cashlc00\u005cDesktop\u005cHartstra\u005cHartstra_10073GrandeFord\u005ccode\u005cTera_7\u005cvt3_code\u005cvt3_POU__WRITE_EL_ENUM.h
p154
S'e27a3ba0649594da92819eca428dfeda'
p155
sVC:\u005cUsers\u005cashlc00\u005cDesktop\u005cHartstra\u005cHartstra_10073GrandeFord\u005ccode\u005cTera_7\u005cvt3_code\u005cvt3_POU__mountUSB.h
p156
S'4b9695cd4c7ab715a8531a6aeb27e894'
p157
sVC:\u005cUsers\u005cashlc00\u005cDesktop\u005cHartstra\u005cHartstra_10073GrandeFord\u005ccode\u005cTera_7\u005cvt3_code\u005cvt3_POU__umountUSB.h
p158
S'0a7a7c4771e3c92265bd5c264629cb7c'
p159
sVC:\u005cUsers\u005cashlc00\u005cDesktop\u005cHartstra\u005cHartstra_10073GrandeFord\u005ccode\u005cTera_7\u005cvt3_code\u005cvt3_POU__WRITE_EL_TO_SD.h
p160
S'5a3ec85ee871bb38535cb8f3e9515e31'
p161
sVC:\u005cUsers\u005cashlc00\u005cDesktop\u005cHartstra\u005cHartstra_10073GrandeFord\u005ccode\u005cTera_7\u005cvt3_code\u005cvt3_lang.h
p162
S'a8721b58f9ff16d6cdbdf9f2df45f9fd'
p163
sVC:\u005cUsers\u005cashlc00\u005cDesktop\u005cHartstra\u005cHartstra_10073GrandeFord\u005ccode\u005cTera_7\u005cvt3_code\u005cvt3_POU__splash_data.h
p164
S'06a56c5d97951cdf3f7735cdc55434aa'
p165
sVC:\u005cUsers\u005cashlc00\u005cDesktop\u005cHartstra\u005cHartstra_10073GrandeFord\u005ccode\u005cTera_7\u005cvt3_code\u005cvt3_BMP__YlwButtonStyle1_0_0.h
p166
S'7c954ba97a5eaef59669f9bd93a13a88'
p167
sVC:\u005cUsers\u005cashlc00\u005cDesktop\u005cHartstra\u005cHartstra_10073GrandeFord\u005ccode\u005cTera_7\u005cvt3_code\u005cvt3_POU__REBOOT.h
p168
S'8d28313461470d0afae1935a3afce661'
p169
sVC:\u005cUsers\u005cashlc00\u005cDesktop\u005cHartstra\u005cHartstra_10073GrandeFord\u005ccode\u005cTera_7\u005cvt3_code\u005cvt3_Disp__Splash.c
p170
S'f3f646623d968e92332ed2c65e5793b4'
p171
sVC:\u005cUsers\u005cashlc00\u005cDesktop\u005cHartstra\u005cHartstra_10073GrandeFord\u005ccode\u005cTera_7\u005cvt3_code\u005cvt3_POU__splash_data.c
p172
S'831367c3729466e584ad1a15a8c0b6dc'
p173
sVC:\u005cUsers\u005cashlc00\u005cDesktop\u005cHartstra\u005cHartstra_10073GrandeFord\u005ccode\u005cTera_7\u005cvt3_code\u005cvt3_Event__Camera2.c
p174
S'40f1b90c65405039321036e0406a4d91'
p175
sVC:\u005cUsers\u005cashlc00\u005cDesktop\u005cHartstra\u005cHartstra_10073GrandeFord\u005ccode\u005cTera_7\u005cvt3_code\u005cvt3_Event__Splash.h
p176
S'17ab0e2a699e322908b2f85223eae64e'
p177
sVC:\u005cUsers\u005cashlc00\u005cDesktop\u005cHartstra\u005cHartstra_10073GrandeFord\u005ccode\u005cTera_7\u005cvt3_code\u005cvt3_POU__doBrightness.h
p178
S'bd7f0e9533f882db1b8709a3dd583a12'
p179
sVC:\u005cUsers\u005cashlc00\u005cDesktop\u005cHartstra\u005cHartstra_10073GrandeFord\u005ccode\u005cTera_7\u005cvt3_code\u005cvt3_Event__Camera.h
p180
S'24afebeae292e0690e20ff47a23804e6'
p181
sVC:\u005cUsers\u005cashlc00\u005cDesktop\u005cHartstra\u005cHartstra_10073GrandeFord\u005ccode\u005cTera_7\u005cvt3_code\u005cvt3_POU__doBrightness.c
p182
S'12d5db05feb130a14db3ab7d4b8132f4'
p183
sVC:\u005cUsers\u005cashlc00\u005cDesktop\u005cHartstra\u005cHartstra_10073GrandeFord\u005ccode\u005cTera_7\u005cvt3_code\u005cvt3_POU__interpol.c
p184
S'f6e11149bc04c40fe5fcaf31b1231cbf'
p185
sVC:\u005cUsers\u005cashlc00\u005cDesktop\u005cHartstra\u005cHartstra_10073GrandeFord\u005ccode\u005cTera_7\u005cvt3_code\u005cvt3_Event__Camera.c
p186
S'35fc6ceb27f4b96ad27533a9ae045656'
p187
sVC:\u005cUsers\u005cashlc00\u005cDesktop\u005cHartstra\u005cHartstra_10073GrandeFord\u005ccode\u005cTera_7\u005cvt3_code\u005cvt3_CAN.h
p188
S'd576274456b16a2977d33b5db3a28e44'
p189
sVC:\u005cUsers\u005cashlc00\u005cDesktop\u005cHartstra\u005cHartstra_10073GrandeFord\u005ccode\u005cTera_7\u005cvt3_code\u005cvt3_POU__usbUpdate.c
p190
S'b3857117872991ad521d98f50daac406'
p191
sVC:\u005cUsers\u005cashlc00\u005cDesktop\u005cHartstra\u005cHartstra_10073GrandeFord\u005ccode\u005cTera_7\u005cvt3_code\u005cvt3_POU__BYTE_TO_ASCII.h
p192
S'38cb083d133586d5c3ede0a2bded46b7'
p193
sVC:\u005cUsers\u005cashlc00\u005cDesktop\u005cHartstra\u005cHartstra_10073GrandeFord\u005ccode\u005cTera_7\u005cvt3_code\u005cvt3_POU__usbUpdate.h
p194
S'3f5e759a10e3069777771cdfe1bf7230'
p195
sVC:\u005cUsers\u005cashlc00\u005cDesktop\u005cHartstra\u005cHartstra_10073GrandeFord\u005ccode\u005cTera_7\u005cvt3_code\u005cvt3_POU__WRITE_EL.h
p196
S'1a5c19894715ccdebdfbdcd51a8c94f0'
p197
sVC:\u005cUsers\u005cashlc00\u005cDesktop\u005cHartstra\u005cHartstra_10073GrandeFord\u005ccode\u005cTera_7\u005cvt3_code\u005cvt3_Event__Home.c
p198
S'2674ebe4b7d44c72418a560056d7395e'
p199
sVC:\u005cUsers\u005cashlc00\u005cDesktop\u005cHartstra\u005cHartstra_10073GrandeFord\u005ccode\u005cTera_7\u005cvt3_code\u005cvt3_POU__home_data.h
p200
S'f81930e729c7b0af526b7cb29a6f9931'
p201
sVC:\u005cUsers\u005cashlc00\u005cDesktop\u005cHartstra\u005cHartstra_10073GrandeFord\u005ccode\u005cTera_7\u005cvt3_code\u005cvt3_POU__SET_POWER_FAIL_SHUTDOWN.h
p202
S'bc09daf7d5461e1a0ab2cea2e1262bde'
p203
sVC:\u005cUsers\u005cashlc00\u005cDesktop\u005cHartstra\u005cHartstra_10073GrandeFord\u005ccode\u005cTera_7\u005cvt3_code\u005cvt3_Disp__Splash.h
p204
S'd2e6dd9a5892697e0ee76d9900a6e582'
p205
sVC:\u005cUsers\u005cashlc00\u005cDesktop\u005cHartstra\u005cHartstra_10073GrandeFord\u005ccode\u005cTera_7\u005cvt3_code\u005cvt3_Disp__Setup.h
p206
S'a1a0147014ae043f4bd619c057d18880'
p207
sVC:\u005cUsers\u005cashlc00\u005cDesktop\u005cHartstra\u005cHartstra_10073GrandeFord\u005ccode\u005cTera_7\u005cvt3_code\u005cvt3_POU__umountSD.h
p208
S'c78a8f025553f187d3d66c99fca1af75'
p209
sVC:\u005cUsers\u005cashlc00\u005cDesktop\u005cHartstra\u005cHartstra_10073GrandeFord\u005ccode\u005cTera_7\u005cvt3_code\u005cvt3_Disp__Setup.c
p210
S'9ef62c83b423b82e9103f9297d05f8e7'
p211
sVC:\u005cUsers\u005cashlc00\u005cDesktop\u005cHartstra\u005cHartstra_10073GrandeFord\u005ccode\u005cTera_7\u005cvt3_code\u005cvt3_Event__Splash.c
p212
S'b98d7360c7c2c13c30b9d57c66774b60'
p213
sVC:\u005cUsers\u005cashlc00\u005cDesktop\u005cHartstra\u005cHartstra_10073GrandeFord\u005ccode\u005cTera_7\u005cvt3_code\u005cvt3_disp.h
p214
S'9daa7707500df2621658309731a99da4'
p215
sVC:\u005cUsers\u005cashlc00\u005cDesktop\u005cHartstra\u005cHartstra_10073GrandeFord\u005ccode\u005cTera_7\u005cvt3_code\u005cvt3_BMP__HartstraLogo2_0_0.h
p216
S'd4654c783b6b99309eb0c6a7ea13d6d8'
p217
sVC:\u005cUsers\u005cashlc00\u005cDesktop\u005cHartstra\u005cHartstra_10073GrandeFord\u005ccode\u005cTera_7\u005cvt3_code\u005cvt3_POU__lcdSetBlank.h
p218
S'ddfdc2e8d7ed09c43e372876a89df454'
p219
sVC:\u005cUsers\u005cashlc00\u005cDesktop\u005cHartstra\u005cHartstra_10073GrandeFord\u005ccode\u005cTera_7\u005cvt3_code\u005cvt3_Disp__Home.h
p220
S'ef2af9646b75d0e8288471d29864ede5'
p221
sVC:\u005cUsers\u005cashlc00\u005cDesktop\u005cHartstra\u005cHartstra_10073GrandeFord\u005ccode\u005cTera_7\u005cvt3_code\u005cvt3_vars.h
p222
S'5b522a26dab90634286fdf78a92db894'
p223
sVC:\u005cUsers\u005cashlc00\u005cDesktop\u005cHartstra\u005cHartstra_10073GrandeFord\u005ccode\u005cTera_7\u005cvt3_code\u005cvt3_vars.c
p224
S'ed1071d1c7509b4e9db99ff431827929'
p225
sVC:\u005cUsers\u005cashlc00\u005cDesktop\u005cHartstra\u005cHartstra_10073GrandeFord\u005ccode\u005cTera_7\u005cvt3_code\u005cvt3_Disp__Home.c
p226
S'c8ad02c6b6c0dea5c34f3b1116cfe0ba'
p227
sVC:\u005cUsers\u005cashlc00\u005cDesktop\u005cHartstra\u005cHartstra_10073GrandeFord\u005ccode\u005cTera_7\u005cvt3_code\u005cvt3_Event__ScreenFrame.h
p228
S'b35c8bbc4863ec4ac3ac49f98234be1c'
p229
sVC:\u005cUsers\u005cashlc00\u005cDesktop\u005cHartstra\u005cHartstra_10073GrandeFord\u005ccode\u005cTera_7\u005cvt3_code\u005cvt3_Event__ScreenFrame.c
p230
S'a09ba3c3b436ddf656660d690fe83685'
p231
sVC:\u005cUsers\u005cashlc00\u005cDesktop\u005cHartstra\u005cHartstra_10073GrandeFord\u005ccode\u005cTera_7\u005cvt3_code\u005cvt3_IO.c
p232
S'ddbc987bc2fecbd3bc3ee3e13380de89'
p233
sVC:\u005cUsers\u005cashlc00\u005cDesktop\u005cHartstra\u005cHartstra_10073GrandeFord\u005ccode\u005cTera_7\u005cvt3_code\u005cvt3_POU__mountSD.h
p234
S'72dff1ea27086214a335451a0622d46c'
p235
sVC:\u005cUsers\u005cashlc00\u005cDesktop\u005cHartstra\u005cHartstra_10073GrandeFord\u005ccode\u005cTera_7\u005cvt3_code\u005cvt3_Event__Home.h
p236
S'f6d3d2b12b63eb9697092fadb392b3f7'
p237
sVC:\u005cUsers\u005cashlc00\u005cDesktop\u005cHartstra\u005cHartstra_10073GrandeFord\u005ccode\u005cTera_7\u005cvt3_code\u005cvt3_BMP__GryButtonStyle1_0_0.h
p238
S'1399adba65e3b4e78ba959714327f2c9'
p239
sVC:\u005cUsers\u005cashlc00\u005cDesktop\u005cHartstra\u005cHartstra_10073GrandeFord\u005ccode\u005cTera_7\u005cvt3_code\u005cvt3_lang.c
p240
S'806ccd2e75a99d291663284e9ab25fa2'
p241
sVC:\u005cUsers\u005cashlc00\u005cDesktop\u005cHartstra\u005cHartstra_10073GrandeFord\u005ccode\u005cTera_7\u005cvt3_code\u005cvt3_POU__WRITE_EL_TO_USB.h
p242
S'c0190e515cc820176bb4d4a16e452b73'
p243
sVC:\u005cUsers\u005cashlc00\u005cDesktop\u005cHartstra\u005cHartstra_10073GrandeFord\u005ccode\u005cTera_7\u005cvt3_code\u005cvt3_init_persistent_r_array.c
p244
S'68ed6d0171041046035d972b823fe6bf'
p245
sVC:\u005cUsers\u005cashlc00\u005cDesktop\u005cHartstra\u005cHartstra_10073GrandeFord\u005ccode\u005cTera_7\u005cvt3_code\u005cvt3_init_persistent_r_array.h
p246
S'6e2e768d269693560e62c805fccc7da5'
p247
s.